; ModuleID = 'source-C-CXX/14/1856.c'
source_filename = "source-C-CXX/14/1856.c"
target datalayout = "e-m:e-p270:32:32-p271:32:32-p272:64:64-i64:64-f80:128-n8:16:32:64-S128"
target triple = "x86_64-pc-linux-gnu"

@.str = private unnamed_addr constant [3 x i8] c"%d\00", align 1

; Function Attrs: nofree nounwind sspstrong uwtable
define dso_local i32 @main() local_unnamed_addr #0 {
  %1 = alloca i32, align 4
  %2 = alloca [100 x [100 x i32]], align 16
  %3 = bitcast i32* %1 to i8*
  call void @llvm.lifetime.start.p0i8(i64 4, i8* nonnull %3) #3
  %4 = call i32 (i8*, ...) @__isoc99_scanf(i8* getelementptr inbounds ([3 x i8], [3 x i8]* @.str, i64 0, i64 0), i32* nonnull %1)
  %5 = bitcast [100 x [100 x i32]]* %2 to i8*
  call void @llvm.lifetime.start.p0i8(i64 40000, i8* nonnull %5) #3
  %6 = load i32, i32* %1, align 4, !tbaa !5
  %7 = icmp sgt i32 %6, 0
  br i1 %7, label %8, label %39

8:                                                ; preds = %0, %29
  %9 = phi i32 [ %30, %29 ], [ %6, %0 ]
  %10 = phi i64 [ %37, %29 ], [ 0, %0 ]
  %11 = phi i32 [ %32, %29 ], [ 0, %0 ]
  %12 = phi i32 [ %36, %29 ], [ undef, %0 ]
  %13 = icmp sgt i32 %9, 0
  br i1 %13, label %14, label %29

14:                                               ; preds = %8, %14
  %15 = phi i64 [ %25, %14 ], [ 0, %8 ]
  %16 = phi i32 [ %24, %14 ], [ %11, %8 ]
  %17 = phi i32 [ %23, %14 ], [ 0, %8 ]
  %18 = getelementptr inbounds [100 x [100 x i32]], [100 x [100 x i32]]* %2, i64 0, i64 %10, i64 %15
  %19 = call i32 (i8*, ...) @__isoc99_scanf(i8* getelementptr inbounds ([3 x i8], [3 x i8]* @.str, i64 0, i64 0), i32* nonnull %18)
  %20 = load i32, i32* %18, align 4, !tbaa !5
  %21 = icmp eq i32 %20, 0
  %22 = zext i1 %21 to i32
  %23 = add nuw nsw i32 %17, %22
  %24 = add nsw i32 %16, %22
  %25 = add nuw nsw i64 %15, 1
  %26 = load i32, i32* %1, align 4, !tbaa !5
  %27 = sext i32 %26 to i64
  %28 = icmp slt i64 %25, %27
  br i1 %28, label %14, label %29, !llvm.loop !9

29:                                               ; preds = %14, %8
  %30 = phi i32 [ %9, %8 ], [ %26, %14 ]
  %31 = phi i32 [ 0, %8 ], [ %23, %14 ]
  %32 = phi i32 [ %11, %8 ], [ %24, %14 ]
  %33 = sext i32 %30 to i64
  %34 = icmp eq i32 %32, %31
  %35 = add nsw i32 %31, -2
  %36 = select i1 %34, i32 %35, i32 %12
  %37 = add nuw nsw i64 %10, 1
  %38 = icmp slt i64 %37, %33
  br i1 %38, label %8, label %39, !llvm.loop !11

39:                                               ; preds = %29, %0
  %40 = phi i32 [ undef, %0 ], [ %36, %29 ]
  %41 = phi i32 [ 0, %0 ], [ %32, %29 ]
  %42 = mul i32 %40, -2
  %43 = add i32 %42, -4
  %44 = add i32 %43, %41
  %45 = sdiv i32 %44, 2
  %46 = mul nsw i32 %45, %40
  %47 = call i32 (i8*, ...) @printf(i8* nonnull dereferenceable(1) getelementptr inbounds ([3 x i8], [3 x i8]* @.str, i64 0, i64 0), i32 %46)
  call void @llvm.lifetime.end.p0i8(i64 40000, i8* nonnull %5) #3
  call void @llvm.lifetime.end.p0i8(i64 4, i8* nonnull %3) #3
  ret i32 0
}

; Function Attrs: argmemonly mustprogress nofree nosync nounwind willreturn
declare void @llvm.lifetime.start.p0i8(i64 immarg, i8* nocapture) #1

; Function Attrs: nofree nounwind
declare noundef i32 @__isoc99_scanf(i8* nocapture noundef readonly, ...) local_unnamed_addr #2

; Function Attrs: nofree nounwind
declare noundef i32 @printf(i8* nocapture noundef readonly, ...) local_unnamed_addr #2

; Function Attrs: argmemonly mustprogress nofree nosync nounwind willreturn
declare void @llvm.lifetime.end.p0i8(i64 immarg, i8* nocapture) #1


!llvm.module.flags = !{!0, !1, !2, !3}
!llvm.ident = !{!4}

!0 = !{i32 1, !"wchar_size", i32 4}
!1 = !{i32 7, !"PIC Level", i32 2}
!2 = !{i32 7, !"PIE Level", i32 2}
!3 = !{i32 7, !"uwtable", i32 1}
!4 = !{!"clang version 13.0.0"}
!5 = !{!6, !6, i64 0}
!6 = !{!"int", !7, i64 0}
!7 = !{!"omnipotent char", !8, i64 0}
!8 = !{!"Simple C/C++ TBAA"}
!9 = distinct !{!9, !10}
!10 = !{!"llvm.loop.mustprogress"}
!11 = distinct !{!11, !10, !12}
!12 = !{!"llvm.loop.unswitch.partial.disable"}
